target datalayout = "e-m:e-p270:32:32-p271:32:32-p272:64:64-i64:64-i128:128-f80:128-n8:16:32:64-S128"
target triple = "x86_64-pc-linux-gnu"

; Function Attrs: nounwind uwtable
define internal void @vector_fmul_window_c(ptr noundef %0, ptr noundef %1, ptr noundef %2, ptr noundef %3, i32 noundef %4) #0 {
  %6 = alloca ptr, align 8
  %7 = alloca ptr, align 8
  %8 = alloca ptr, align 8
  %9 = alloca ptr, align 8
  %10 = alloca i32, align 4
  %11 = alloca i32, align 4
  %12 = alloca i32, align 4
  %13 = alloca float, align 4
  %14 = alloca float, align 4
  %15 = alloca float, align 4
  %16 = alloca float, align 4
  store ptr %0, ptr %6, align 8, !tbaa !32
  store ptr %1, ptr %7, align 8, !tbaa !32
  store ptr %2, ptr %8, align 8, !tbaa !32
  store ptr %3, ptr %9, align 8, !tbaa !32
  store i32 %4, ptr %10, align 4, !tbaa !15
  call void @llvm.lifetime.start.p0(i64 4, ptr %11) #5
  call void @llvm.lifetime.start.p0(i64 4, ptr %12) #5
  %17 = load i32, ptr %10, align 4, !tbaa !15
  %18 = load ptr, ptr %6, align 8, !tbaa !32
  %19 = sext i32 %17 to i64
  %20 = getelementptr inbounds float, ptr %18, i64 %19
  store ptr %20, ptr %6, align 8, !tbaa !32
  %21 = load i32, ptr %10, align 4, !tbaa !15
  %22 = load ptr, ptr %9, align 8, !tbaa !32
  %23 = sext i32 %21 to i64
  %24 = getelementptr inbounds float, ptr %22, i64 %23
  store ptr %24, ptr %9, align 8, !tbaa !32
  %25 = load i32, ptr %10, align 4, !tbaa !15
  %26 = load ptr, ptr %7, align 8, !tbaa !32
  %27 = sext i32 %25 to i64
  %28 = getelementptr inbounds float, ptr %26, i64 %27
  store ptr %28, ptr %7, align 8, !tbaa !32
  %29 = load i32, ptr %10, align 4, !tbaa !15
  %30 = sub nsw i32 0, %29
  store i32 %30, ptr %11, align 4, !tbaa !15
  %31 = load i32, ptr %10, align 4, !tbaa !15
  %32 = sub nsw i32 %31, 1
  store i32 %32, ptr %12, align 4, !tbaa !15
  br label %33

33:                                               ; preds = %78, %5
  %34 = load i32, ptr %11, align 4, !tbaa !15
  %35 = icmp slt i32 %34, 0
  br i1 %35, label %36, label %83

36:                                               ; preds = %33
  call void @llvm.lifetime.start.p0(i64 4, ptr %13) #5
  %37 = load ptr, ptr %7, align 8, !tbaa !32
  %38 = load i32, ptr %11, align 4, !tbaa !15
  %39 = sext i32 %38 to i64
  %40 = getelementptr inbounds float, ptr %37, i64 %39
  %41 = load float, ptr %40, align 4, !tbaa !34
  store float %41, ptr %13, align 4, !tbaa !34
  call void @llvm.lifetime.start.p0(i64 4, ptr %14) #5
  %42 = load ptr, ptr %8, align 8, !tbaa !32
  %43 = load i32, ptr %12, align 4, !tbaa !15
  %44 = sext i32 %43 to i64
  %45 = getelementptr inbounds float, ptr %42, i64 %44
  %46 = load float, ptr %45, align 4, !tbaa !34
  store float %46, ptr %14, align 4, !tbaa !34
  call void @llvm.lifetime.start.p0(i64 4, ptr %15) #5
  %47 = load ptr, ptr %9, align 8, !tbaa !32
  %48 = load i32, ptr %11, align 4, !tbaa !15
  %49 = sext i32 %48 to i64
  %50 = getelementptr inbounds float, ptr %47, i64 %49
  %51 = load float, ptr %50, align 4, !tbaa !34
  store float %51, ptr %15, align 4, !tbaa !34
  call void @llvm.lifetime.start.p0(i64 4, ptr %16) #5
  %52 = load ptr, ptr %9, align 8, !tbaa !32
  %53 = load i32, ptr %12, align 4, !tbaa !15
  %54 = sext i32 %53 to i64
  %55 = getelementptr inbounds float, ptr %52, i64 %54
  %56 = load float, ptr %55, align 4, !tbaa !34
  store float %56, ptr %16, align 4, !tbaa !34
  %57 = load float, ptr %13, align 4, !tbaa !34
  %58 = load float, ptr %16, align 4, !tbaa !34
  %59 = load float, ptr %14, align 4, !tbaa !34
  %60 = load float, ptr %15, align 4, !tbaa !34
  %61 = fmul nsz float %59, %60
  %62 = fneg nsz float %61
  %63 = call nsz float @llvm.fmuladd.f32(float %57, float %58, float %62)
  %64 = load ptr, ptr %6, align 8, !tbaa !32
  %65 = load i32, ptr %11, align 4, !tbaa !15
  %66 = sext i32 %65 to i64
  %67 = getelementptr inbounds float, ptr %64, i64 %66
  store float %63, ptr %67, align 4, !tbaa !34
  %68 = load float, ptr %13, align 4, !tbaa !34
  %69 = load float, ptr %15, align 4, !tbaa !34
  %70 = load float, ptr %14, align 4, !tbaa !34
  %71 = load float, ptr %16, align 4, !tbaa !34
  %72 = fmul nsz float %70, %71
  %73 = call nsz float @llvm.fmuladd.f32(float %68, float %69, float %72)
  %74 = load ptr, ptr %6, align 8, !tbaa !32
  %75 = load i32, ptr %12, align 4, !tbaa !15
  %76 = sext i32 %75 to i64
  %77 = getelementptr inbounds float, ptr %74, i64 %76
  store float %73, ptr %77, align 4, !tbaa !34
  call void @llvm.lifetime.end.p0(i64 4, ptr %16) #5
  call void @llvm.lifetime.end.p0(i64 4, ptr %15) #5
  call void @llvm.lifetime.end.p0(i64 4, ptr %14) #5
  call void @llvm.lifetime.end.p0(i64 4, ptr %13) #5
  br label %78

78:                                               ; preds = %36
  %79 = load i32, ptr %11, align 4, !tbaa !15
  %80 = add nsw i32 %79, 1
  store i32 %80, ptr %11, align 4, !tbaa !15
  %81 = load i32, ptr %12, align 4, !tbaa !15
  %82 = add nsw i32 %81, -1
  store i32 %82, ptr %12, align 4, !tbaa !15
  br label %33, !llvm.loop !42

83:                                               ; preds = %33
  call void @llvm.lifetime.end.p0(i64 4, ptr %12) #5
  call void @llvm.lifetime.end.p0(i64 4, ptr %11) #5
  ret void
}