; Function Attrs: nofree norecurse nosync nounwind memory(argmem: readwrite) uwtable
define internal void @vector_fmul_window_c(ptr noundef writeonly captures(none) %0, ptr noundef readonly captures(none) %1, ptr noundef readonly captures(none) %2, ptr noundef readonly captures(none) %3, i32 noundef %4) #4 {
  %6 = sext i32 %4 to i64
  %7 = getelementptr inbounds float, ptr %0, i64 %6
  %8 = getelementptr inbounds float, ptr %3, i64 %6
  %9 = getelementptr inbounds float, ptr %1, i64 %6
  %10 = icmp sgt i32 %4, 0
  br i1 %10, label %.lr.ph.preheader, label %._crit_edge

.lr.ph.preheader:                                 ; preds = %5
  %11 = sub nsw i32 0, %4
  %12 = sext i32 %11 to i64
  br label %.lr.ph

.lr.ph:                                           ; preds = %.lr.ph.preheader, %.lr.ph
  %indvars.iv33 = phi i64 [ %6, %.lr.ph.preheader ], [ %indvars.iv.next34, %.lr.ph ]
  %indvars.iv = phi i64 [ %12, %.lr.ph.preheader ], [ %indvars.iv.next, %.lr.ph ]
  %indvars.iv.next34 = add nsw i64 %indvars.iv33, -1
  %13 = getelementptr inbounds float, ptr %9, i64 %indvars.iv
  %14 = load float, ptr %13, align 4, !tbaa !24
  %15 = getelementptr inbounds float, ptr %2, i64 %indvars.iv.next34
  %16 = load float, ptr %15, align 4, !tbaa !24
  %17 = getelementptr inbounds float, ptr %8, i64 %indvars.iv
  %18 = load float, ptr %17, align 4, !tbaa !24
  %19 = getelementptr inbounds float, ptr %8, i64 %indvars.iv.next34
  %20 = load float, ptr %19, align 4, !tbaa !24
  %21 = fneg nsz float %18
  %22 = fmul nsz float %16, %21
  %23 = tail call nsz float @llvm.fmuladd.f32(float %14, float %20, float %22)
  %24 = getelementptr inbounds float, ptr %7, i64 %indvars.iv
  store float %23, ptr %24, align 4, !tbaa !24
  %25 = fmul nsz float %16, %20
  %26 = tail call nsz float @llvm.fmuladd.f32(float %14, float %18, float %25)
  %27 = getelementptr inbounds float, ptr %7, i64 %indvars.iv.next34
  store float %26, ptr %27, align 4, !tbaa !24
  %indvars.iv.next = add nsw i64 %indvars.iv, 1
  %28 = and i64 %indvars.iv.next, 4294967295
  %exitcond.not = icmp eq i64 %28, 0
  br i1 %exitcond.not, label %._crit_edge, label %.lr.ph, !llvm.loop !32

._crit_edge:                                      ; preds = %.lr.ph, %5
  ret void
}